; Function Attrs: nounwind uwtable
define range(i32 -46, 1) i32 @pmix_hash_table_remove_value_uint32(ptr noundef captures(none) initializes((176, 184)) %0, i32 noundef %1) local_unnamed_addr #1 {
  %3 = getelementptr inbounds nuw i8, ptr %0, i64 136
  %4 = load i64, ptr %3, align 8, !tbaa !11
  %5 = getelementptr inbounds nuw i8, ptr %0, i64 176
  store ptr @pmix_hash_type_methods_uint32, ptr %5, align 8, !tbaa !21
  %6 = zext i32 %1 to i64
  %7 = urem i64 %6, %4
  %8 = getelementptr inbounds nuw i8, ptr %0, i64 128
  %9 = load ptr, ptr %8, align 8, !tbaa !17
  %10 = getelementptr inbounds nuw %struct.pmix_hash_element_t, ptr %9, i64 %7
  %11 = load i32, ptr %10, align 8, !tbaa !18
  %.not26 = icmp eq i32 %11, 0
  br i1 %.not26, label %.loopexit, label %.lr.ph

.lr.ph:                                           ; preds = %2, %40
  %12 = phi ptr [ %43, %40 ], [ %10, %2 ]
  %spec.store.select27 = phi i64 [ %spec.store.select, %40 ], [ %7, %2 ]
  %13 = getelementptr inbounds nuw i8, ptr %12, i64 8
  %14 = load i32, ptr %13, align 8, !tbaa !36
  %15 = icmp eq i32 %14, %1
  br i1 %15, label %16, label %40

16:                                               ; preds = %.lr.ph
  store i32 0, ptr %12, align 8, !tbaa !18
  %.03441.i = add i64 %spec.store.select27, 1
  %17 = icmp eq i64 %.03441.i, %4
  %spec.store.select42.i = select i1 %17, i64 0, i64 %.03441.i
  %18 = getelementptr inbounds nuw %struct.pmix_hash_element_t, ptr %9, i64 %spec.store.select42.i
  %19 = load i32, ptr %18, align 8, !tbaa !18
  %.not3843.i = icmp eq i32 %19, 0
  br i1 %.not3843.i, label %pmix_hash_table_remove_elt_at.exit, label %.lr.ph45.i

.lr.ph45.i:                                       ; preds = %16, %.loopexit.i
  %20 = phi ptr [ %35, %.loopexit.i ], [ %18, %16 ]
  %spec.store.select44.i = phi i64 [ %spec.store.select.i, %.loopexit.i ], [ %spec.store.select42.i, %16 ]
  %21 = load ptr, ptr %5, align 8, !tbaa !21
  %22 = getelementptr inbounds nuw i8, ptr %21, i64 8
  %23 = load ptr, ptr %22, align 8, !tbaa !39
  %24 = tail call i64 %23(ptr noundef nonnull %20) #13
  %25 = urem i64 %24, %4
  %26 = icmp eq i64 %25, %spec.store.select44.i
  br i1 %26, label %.loopexit.i, label %.lr.ph.i

27:                                               ; preds = %.lr.ph.i
  %28 = add i64 %spec.store.select140.i, 1
  %29 = icmp eq i64 %28, %4
  %spec.store.select1.i = select i1 %29, i64 0, i64 %28
  %30 = icmp eq i64 %spec.store.select1.i, %spec.store.select44.i
  br i1 %30, label %.loopexit.i, label %.lr.ph.i

.lr.ph.i:                                         ; preds = %.lr.ph45.i, %27
  %spec.store.select140.i = phi i64 [ %spec.store.select1.i, %27 ], [ %25, %.lr.ph45.i ]
  %31 = getelementptr inbounds nuw %struct.pmix_hash_element_t, ptr %9, i64 %spec.store.select140.i
  %32 = load i32, ptr %31, align 8, !tbaa !18
  %.not39.i = icmp eq i32 %32, 0
  br i1 %.not39.i, label %33, label %27

33:                                               ; preds = %.lr.ph.i
  tail call void @llvm.memcpy.p0.p0.i64(ptr noundef nonnull align 8 dereferenceable(40) %31, ptr noundef nonnull align 8 dereferenceable(40) %20, i64 40, i1 false), !tbaa.struct !40
  store i32 0, ptr %20, align 8, !tbaa !18
  br label %.loopexit.i

.loopexit.i:                                      ; preds = %27, %33, %.lr.ph45.i
  %.034.i = add i64 %spec.store.select44.i, 1
  %34 = icmp eq i64 %.034.i, %4
  %spec.store.select.i = select i1 %34, i64 0, i64 %.034.i
  %35 = getelementptr inbounds nuw %struct.pmix_hash_element_t, ptr %9, i64 %spec.store.select.i
  %36 = load i32, ptr %35, align 8, !tbaa !18
  %.not38.i = icmp eq i32 %36, 0
  br i1 %.not38.i, label %pmix_hash_table_remove_elt_at.exit, label %.lr.ph45.i

pmix_hash_table_remove_elt_at.exit:               ; preds = %.loopexit.i, %16
  %37 = getelementptr inbounds nuw i8, ptr %0, i64 144
  %38 = load i64, ptr %37, align 8, !tbaa !27
  %39 = add i64 %38, -1
  store i64 %39, ptr %37, align 8, !tbaa !27
  br label %.loopexit

40:                                               ; preds = %.lr.ph
  %41 = add i64 %spec.store.select27, 1
  %42 = icmp eq i64 %41, %4
  %spec.store.select = select i1 %42, i64 0, i64 %41
  %43 = getelementptr inbounds nuw %struct.pmix_hash_element_t, ptr %9, i64 %spec.store.select
  %44 = load i32, ptr %43, align 8, !tbaa !18
  %.not = icmp eq i32 %44, 0
  br i1 %.not, label %.loopexit, label %.lr.ph

.loopexit:                                        ; preds = %40, %2, %pmix_hash_table_remove_elt_at.exit
  %.1.ph = phi i32 [ 0, %pmix_hash_table_remove_elt_at.exit ], [ -46, %2 ], [ -46, %40 ]
  ret i32 %.1.ph
}